; Function Attrs: nounwind uwtable
define void @Cof_ManInsertEntry_rec(ptr noundef captures(none) %0, ptr noundef %1, i32 noundef %2) local_unnamed_addr #0 {
  %4 = getelementptr i8, ptr %0, i64 4
  %.val = load i32, ptr %4, align 4, !tbaa !64
  %5 = icmp eq i32 %.val, 0
  br i1 %5, label %6, label %17

6:                                                ; preds = %3
  %7 = load i32, ptr %0, align 8, !tbaa !66
  %8 = icmp eq i32 %7, 0
  %9 = getelementptr inbounds nuw i8, ptr %0, i64 8
  %10 = load ptr, ptr %9, align 8, !tbaa !67
  br i1 %8, label %11, label %.sink.split

11:                                               ; preds = %6
  %.not9.i.i = icmp eq ptr %10, null
  br i1 %.not9.i.i, label %14, label %12

12:                                               ; preds = %11
  %13 = tail call dereferenceable_or_null(128) ptr @realloc(ptr noundef nonnull %10, i64 noundef 128) #28
  %.pre.pre = load i32, ptr %4, align 4, !tbaa !64
  br label %Vec_PtrGrow.exit.i

14:                                               ; preds = %11
  %15 = tail call noalias dereferenceable_or_null(128) ptr @malloc(i64 noundef 128) #26
  br label %Vec_PtrGrow.exit.i

Vec_PtrGrow.exit.i:                               ; preds = %14, %12
  %.pre = phi i32 [ %.pre.pre, %12 ], [ 0, %14 ]
  %16 = phi ptr [ %13, %12 ], [ %15, %14 ]
  store ptr %16, ptr %9, align 8, !tbaa !67
  store i32 16, ptr %0, align 8, !tbaa !66
  br label %.sink.split

17:                                               ; preds = %3
  %18 = getelementptr inbounds nuw i8, ptr %0, i64 8
  %19 = load ptr, ptr %18, align 8, !tbaa !67
  %20 = add nsw i32 %.val, -1
  store i32 %20, ptr %4, align 4, !tbaa !64
  %21 = sext i32 %20 to i64
  %22 = getelementptr inbounds ptr, ptr %19, i64 %21
  %23 = load ptr, ptr %22, align 8, !tbaa !68
  %.val20 = load i32, ptr %23, align 4
  %24 = lshr i32 %.val20, 8
  %.val21 = load i32, ptr %1, align 4
  %25 = lshr i32 %.val21, 8
  %26 = icmp samesign ult i32 %24, %25
  br i1 %26, label %27, label %54

27:                                               ; preds = %17
  tail call void @Cof_ManInsertEntry_rec(ptr noundef nonnull %0, ptr noundef nonnull %1, i32 noundef %2)
  %.val18 = load i32, ptr %4, align 4, !tbaa !64
  %28 = icmp slt i32 %.val18, %2
  br i1 %28, label %29, label %96

29:                                               ; preds = %27
  %30 = load i32, ptr %0, align 8, !tbaa !66
  %31 = icmp eq i32 %.val18, %30
  br i1 %31, label %32, label %.Vec_PtrGrow.exit11_crit_edge.i22

.Vec_PtrGrow.exit11_crit_edge.i22:                ; preds = %29
  %.pre.i24 = load ptr, ptr %18, align 8, !tbaa !67
  br label %Vec_PtrPush.exit28

32:                                               ; preds = %29
  %33 = icmp slt i32 %.val18, 16
  br i1 %33, label %34, label %41

34:                                               ; preds = %32
  %35 = load ptr, ptr %18, align 8, !tbaa !67
  %.not9.i.i26 = icmp eq ptr %35, null
  br i1 %.not9.i.i26, label %38, label %36

36:                                               ; preds = %34
  %37 = tail call dereferenceable_or_null(128) ptr @realloc(ptr noundef nonnull %35, i64 noundef 128) #28
  br label %Vec_PtrGrow.exit.i27

38:                                               ; preds = %34
  %39 = tail call noalias dereferenceable_or_null(128) ptr @malloc(i64 noundef 128) #26
  br label %Vec_PtrGrow.exit.i27

Vec_PtrGrow.exit.i27:                             ; preds = %38, %36
  %40 = phi ptr [ %37, %36 ], [ %39, %38 ]
  store ptr %40, ptr %18, align 8, !tbaa !67
  store i32 16, ptr %0, align 8, !tbaa !66
  br label %Vec_PtrPush.exit28

41:                                               ; preds = %32
  %42 = shl nuw nsw i32 %.val18, 1
  %43 = load ptr, ptr %18, align 8, !tbaa !67
  %.not9.i10.i25 = icmp eq ptr %43, null
  %44 = zext nneg i32 %42 to i64
  %45 = shl nuw nsw i64 %44, 3
  br i1 %.not9.i10.i25, label %48, label %46

46:                                               ; preds = %41
  %47 = tail call ptr @realloc(ptr noundef nonnull %43, i64 noundef %45) #28
  br label %50

48:                                               ; preds = %41
  %49 = tail call noalias ptr @malloc(i64 noundef %45) #26
  br label %50

50:                                               ; preds = %48, %46
  %51 = phi ptr [ %47, %46 ], [ %49, %48 ]
  store ptr %51, ptr %18, align 8, !tbaa !67
  store i32 %42, ptr %0, align 8, !tbaa !66
  br label %Vec_PtrPush.exit28

Vec_PtrPush.exit28:                               ; preds = %.Vec_PtrGrow.exit11_crit_edge.i22, %Vec_PtrGrow.exit.i27, %50
  %52 = phi ptr [ %.pre.i24, %.Vec_PtrGrow.exit11_crit_edge.i22 ], [ %51, %50 ], [ %40, %Vec_PtrGrow.exit.i27 ]
  %53 = load i32, ptr %4, align 4, !tbaa !64
  br label %.sink.split

54:                                               ; preds = %17
  %55 = load i32, ptr %0, align 8, !tbaa !66
  %56 = icmp eq i32 %20, %55
  br i1 %56, label %Vec_PtrPush.exit35.sink.split, label %Vec_PtrPush.exit35

Vec_PtrPush.exit35.sink.split:                    ; preds = %54
  %57 = icmp slt i32 %.val, 17
  %58 = shl nuw nsw i32 %20, 1
  %59 = zext nneg i32 %58 to i64
  %60 = shl nuw nsw i64 %59, 3
  %.sink46 = select i1 %57, i64 128, i64 %60
  %.sink = select i1 %57, i32 16, i32 %58
  %61 = tail call ptr @realloc(ptr noundef nonnull %19, i64 noundef %.sink46) #28
  store ptr %61, ptr %18, align 8, !tbaa !67
  store i32 %.sink, ptr %0, align 8, !tbaa !66
  br label %Vec_PtrPush.exit35

Vec_PtrPush.exit35:                               ; preds = %Vec_PtrPush.exit35.sink.split, %54
  %62 = phi i32 [ %55, %54 ], [ %.sink, %Vec_PtrPush.exit35.sink.split ]
  %63 = phi ptr [ %19, %54 ], [ %61, %Vec_PtrPush.exit35.sink.split ]
  %64 = load i32, ptr %4, align 4, !tbaa !64
  %65 = add nsw i32 %64, 1
  store i32 %65, ptr %4, align 4, !tbaa !64
  %66 = sext i32 %64 to i64
  %67 = getelementptr inbounds ptr, ptr %63, i64 %66
  store ptr %23, ptr %67, align 8, !tbaa !68
  %68 = icmp slt i32 %65, %2
  br i1 %68, label %69, label %96

69:                                               ; preds = %Vec_PtrPush.exit35
  %70 = icmp eq i32 %65, %62
  br i1 %70, label %71, label %.Vec_PtrGrow.exit11_crit_edge.i36

.Vec_PtrGrow.exit11_crit_edge.i36:                ; preds = %69
  %.pre.i38 = load ptr, ptr %18, align 8, !tbaa !67
  br label %Vec_PtrPush.exit42

71:                                               ; preds = %69
  %72 = icmp slt i32 %64, 15
  br i1 %72, label %73, label %80

73:                                               ; preds = %71
  %74 = load ptr, ptr %18, align 8, !tbaa !67
  %.not9.i.i40 = icmp eq ptr %74, null
  br i1 %.not9.i.i40, label %77, label %75

75:                                               ; preds = %73
  %76 = tail call dereferenceable_or_null(128) ptr @realloc(ptr noundef nonnull %74, i64 noundef 128) #28
  br label %Vec_PtrGrow.exit.i41

77:                                               ; preds = %73
  %78 = tail call noalias dereferenceable_or_null(128) ptr @malloc(i64 noundef 128) #26
  br label %Vec_PtrGrow.exit.i41

Vec_PtrGrow.exit.i41:                             ; preds = %77, %75
  %79 = phi ptr [ %76, %75 ], [ %78, %77 ]
  store ptr %79, ptr %18, align 8, !tbaa !67
  store i32 16, ptr %0, align 8, !tbaa !66
  br label %Vec_PtrPush.exit42

80:                                               ; preds = %71
  %81 = shl nuw nsw i32 %62, 1
  %82 = load ptr, ptr %18, align 8, !tbaa !67
  %.not9.i10.i39 = icmp eq ptr %82, null
  %83 = zext nneg i32 %81 to i64
  %84 = shl nuw nsw i64 %83, 3
  br i1 %.not9.i10.i39, label %87, label %85

85:                                               ; preds = %80
  %86 = tail call ptr @realloc(ptr noundef nonnull %82, i64 noundef %84) #28
  br label %89

87:                                               ; preds = %80
  %88 = tail call noalias ptr @malloc(i64 noundef %84) #26
  br label %89

89:                                               ; preds = %87, %85
  %90 = phi ptr [ %86, %85 ], [ %88, %87 ]
  store ptr %90, ptr %18, align 8, !tbaa !67
  store i32 %81, ptr %0, align 8, !tbaa !66
  br label %Vec_PtrPush.exit42

Vec_PtrPush.exit42:                               ; preds = %.Vec_PtrGrow.exit11_crit_edge.i36, %Vec_PtrGrow.exit.i41, %89
  %91 = phi ptr [ %.pre.i38, %.Vec_PtrGrow.exit11_crit_edge.i36 ], [ %90, %89 ], [ %79, %Vec_PtrGrow.exit.i41 ]
  %92 = load i32, ptr %4, align 4, !tbaa !64
  br label %.sink.split

.sink.split:                                      ; preds = %Vec_PtrGrow.exit.i, %6, %Vec_PtrPush.exit42, %Vec_PtrPush.exit28
  %.sink53 = phi i32 [ %53, %Vec_PtrPush.exit28 ], [ %92, %Vec_PtrPush.exit42 ], [ %.pre, %Vec_PtrGrow.exit.i ], [ 0, %6 ]
  %.sink49 = phi ptr [ %52, %Vec_PtrPush.exit28 ], [ %91, %Vec_PtrPush.exit42 ], [ %16, %Vec_PtrGrow.exit.i ], [ %10, %6 ]
  %.sink47 = phi ptr [ %23, %Vec_PtrPush.exit28 ], [ %1, %Vec_PtrPush.exit42 ], [ %1, %Vec_PtrGrow.exit.i ], [ %1, %6 ]
  %93 = add nsw i32 %.sink53, 1
  store i32 %93, ptr %4, align 4, !tbaa !64
  %94 = sext i32 %.sink53 to i64
  %95 = getelementptr inbounds ptr, ptr %.sink49, i64 %94
  store ptr %.sink47, ptr %95, align 8, !tbaa !68
  br label %96

96:                                               ; preds = %.sink.split, %27, %Vec_PtrPush.exit35
  ret void
}